target datalayout = "e-m:e-p270:32:32-p271:32:32-p272:64:64-i64:64-i128:128-f80:128-n8:16:32:64-S128"
target triple = "x86_64-pc-linux-gnu"

%struct.LodePNGColorMode = type { i32, i32, ptr, i64, i32, i32, i32, i32 }
%struct.LodePNGInfo = type { i32, i32, i32, %struct.LodePNGColorMode, i32, i32, i32, i32, i64, ptr, ptr, i64, ptr, ptr, ptr, ptr, i32, ptr, i32, i32, %struct.LodePNGTime, i32, i32, i32, i32, i32, i32, i32, i32, i32, i32, i32, i32, i32, i32, i32, i32, i32, i32, ptr, ptr, i32, i32, i32, i32, i32, i32, i32, i32, i32, i32, i32, i32, i32, i32, i32, i32, i32, i32, i32, i32, i32, i32, i32, i32, i32, [3 x ptr], [3 x i64] }
%struct.LodePNGTime = type { i32, i32, i32, i32, i32, i32 }

; Function Attrs: mustprogress nounwind uwtable
define internal noundef i32 @_ZL14readChunk_pHYsP11LodePNGInfoPKhm(ptr noundef %0, ptr noundef %1, i64 noundef %2) #3 {
  %4 = alloca i32, align 4
  %5 = alloca ptr, align 8
  %6 = alloca ptr, align 8
  %7 = alloca i64, align 8
  store ptr %0, ptr %5, align 8, !tbaa !116
  store ptr %1, ptr %6, align 8, !tbaa !11
  store i64 %2, ptr %7, align 8, !tbaa !17
  %8 = load i64, ptr %7, align 8, !tbaa !17
  %9 = icmp ne i64 %8, 9
  br i1 %9, label %10, label %11

10:                                               ; preds = %3
  store i32 74, ptr %4, align 4
  br label %68

11:                                               ; preds = %3
  %12 = load ptr, ptr %5, align 8, !tbaa !116
  %13 = getelementptr inbounds nuw %struct.LodePNGInfo, ptr %12, i32 0, i32 21
  store i32 1, ptr %13, align 8, !tbaa !145
  %14 = load ptr, ptr %6, align 8, !tbaa !11
  %15 = getelementptr inbounds i8, ptr %14, i64 0
  %16 = load i8, ptr %15, align 1, !tbaa !45
  %17 = zext i8 %16 to i32
  %18 = mul i32 16777216, %17
  %19 = load ptr, ptr %6, align 8, !tbaa !11
  %20 = getelementptr inbounds i8, ptr %19, i64 1
  %21 = load i8, ptr %20, align 1, !tbaa !45
  %22 = zext i8 %21 to i32
  %23 = mul i32 65536, %22
  %24 = add i32 %18, %23
  %25 = load ptr, ptr %6, align 8, !tbaa !11
  %26 = getelementptr inbounds i8, ptr %25, i64 2
  %27 = load i8, ptr %26, align 1, !tbaa !45
  %28 = zext i8 %27 to i32
  %29 = mul i32 256, %28
  %30 = add i32 %24, %29
  %31 = load ptr, ptr %6, align 8, !tbaa !11
  %32 = getelementptr inbounds i8, ptr %31, i64 3
  %33 = load i8, ptr %32, align 1, !tbaa !45
  %34 = zext i8 %33 to i32
  %35 = add i32 %30, %34
  %36 = load ptr, ptr %5, align 8, !tbaa !116
  %37 = getelementptr inbounds nuw %struct.LodePNGInfo, ptr %36, i32 0, i32 22
  store i32 %35, ptr %37, align 4, !tbaa !265
  %38 = load ptr, ptr %6, align 8, !tbaa !11
  %39 = getelementptr inbounds i8, ptr %38, i64 4
  %40 = load i8, ptr %39, align 1, !tbaa !45
  %41 = zext i8 %40 to i32
  %42 = mul i32 16777216, %41
  %43 = load ptr, ptr %6, align 8, !tbaa !11
  %44 = getelementptr inbounds i8, ptr %43, i64 5
  %45 = load i8, ptr %44, align 1, !tbaa !45
  %46 = zext i8 %45 to i32
  %47 = mul i32 65536, %46
  %48 = add i32 %42, %47
  %49 = load ptr, ptr %6, align 8, !tbaa !11
  %50 = getelementptr inbounds i8, ptr %49, i64 6
  %51 = load i8, ptr %50, align 1, !tbaa !45
  %52 = zext i8 %51 to i32
  %53 = mul i32 256, %52
  %54 = add i32 %48, %53
  %55 = load ptr, ptr %6, align 8, !tbaa !11
  %56 = getelementptr inbounds i8, ptr %55, i64 7
  %57 = load i8, ptr %56, align 1, !tbaa !45
  %58 = zext i8 %57 to i32
  %59 = add i32 %54, %58
  %60 = load ptr, ptr %5, align 8, !tbaa !116
  %61 = getelementptr inbounds nuw %struct.LodePNGInfo, ptr %60, i32 0, i32 23
  store i32 %59, ptr %61, align 8, !tbaa !266
  %62 = load ptr, ptr %6, align 8, !tbaa !11
  %63 = getelementptr inbounds i8, ptr %62, i64 8
  %64 = load i8, ptr %63, align 1, !tbaa !45
  %65 = zext i8 %64 to i32
  %66 = load ptr, ptr %5, align 8, !tbaa !116
  %67 = getelementptr inbounds nuw %struct.LodePNGInfo, ptr %66, i32 0, i32 24
  store i32 %65, ptr %67, align 4, !tbaa !267
  store i32 0, ptr %4, align 4
  br label %68

68:                                               ; preds = %11, %10
  %69 = load i32, ptr %4, align 4
  ret i32 %69
}