; Function Attrs: mustprogress nofree norecurse nosync nounwind willreturn memory(argmem: readwrite) uwtable
define internal fastcc noundef range(i32 0, 75) i32 @_ZL14readChunk_pHYsP11LodePNGInfoPKhm(ptr noundef writeonly captures(none) %0, ptr noundef readonly captures(none) %1, i64 noundef range(i64 0, 2147483648) %2) unnamed_addr #13 {
  %.not = icmp eq i64 %2, 9
  br i1 %.not, label %4, label %47

4:                                                ; preds = %3
  %5 = getelementptr inbounds nuw i8, ptr %0, i64 184
  store i32 1, ptr %5, align 8, !tbaa !259
  %6 = load i8, ptr %1, align 1, !tbaa !18
  %7 = zext i8 %6 to i32
  %8 = shl nuw i32 %7, 24
  %9 = getelementptr inbounds nuw i8, ptr %1, i64 1
  %10 = load i8, ptr %9, align 1, !tbaa !18
  %11 = zext i8 %10 to i32
  %12 = shl nuw nsw i32 %11, 16
  %13 = or disjoint i32 %12, %8
  %14 = getelementptr inbounds nuw i8, ptr %1, i64 2
  %15 = load i8, ptr %14, align 1, !tbaa !18
  %16 = zext i8 %15 to i32
  %17 = shl nuw nsw i32 %16, 8
  %18 = or disjoint i32 %13, %17
  %19 = getelementptr inbounds nuw i8, ptr %1, i64 3
  %20 = load i8, ptr %19, align 1, !tbaa !18
  %21 = zext i8 %20 to i32
  %22 = or disjoint i32 %18, %21
  %23 = getelementptr inbounds nuw i8, ptr %0, i64 188
  store i32 %22, ptr %23, align 4, !tbaa !457
  %24 = getelementptr inbounds nuw i8, ptr %1, i64 4
  %25 = load i8, ptr %24, align 1, !tbaa !18
  %26 = zext i8 %25 to i32
  %27 = shl nuw i32 %26, 24
  %28 = getelementptr inbounds nuw i8, ptr %1, i64 5
  %29 = load i8, ptr %28, align 1, !tbaa !18
  %30 = zext i8 %29 to i32
  %31 = shl nuw nsw i32 %30, 16
  %32 = or disjoint i32 %31, %27
  %33 = getelementptr inbounds nuw i8, ptr %1, i64 6
  %34 = load i8, ptr %33, align 1, !tbaa !18
  %35 = zext i8 %34 to i32
  %36 = shl nuw nsw i32 %35, 8
  %37 = or disjoint i32 %32, %36
  %38 = getelementptr inbounds nuw i8, ptr %1, i64 7
  %39 = load i8, ptr %38, align 1, !tbaa !18
  %40 = zext i8 %39 to i32
  %41 = or disjoint i32 %37, %40
  %42 = getelementptr inbounds nuw i8, ptr %0, i64 192
  store i32 %41, ptr %42, align 8, !tbaa !458
  %43 = getelementptr inbounds nuw i8, ptr %1, i64 8
  %44 = load i8, ptr %43, align 1, !tbaa !18
  %45 = zext i8 %44 to i32
  %46 = getelementptr inbounds nuw i8, ptr %0, i64 196
  store i32 %45, ptr %46, align 4, !tbaa !459
  br label %47

47:                                               ; preds = %3, %4
  %.0 = phi i32 [ 0, %4 ], [ 74, %3 ]
  ret i32 %.0
}